target datalayout = "e-m:e-p270:32:32-p271:32:32-p272:64:64-i64:64-i128:128-f80:128-n8:16:32:64-S128"
target triple = "x86_64-pc-linux-gnu"

%struct._dfilter_loc = type { i64, i64 }
%struct.sttype_t = type { i32, ptr, ptr, ptr, ptr }
%struct.stnode = type { ptr, ptr, ptr, ptr, ptr, %struct._dfilter_loc, i16 }

@.str = private unnamed_addr constant [14 x i8] c"UNINITIALIZED\00", align 1
@.str.1 = private unnamed_addr constant [5 x i8] c"TEST\00", align 1
@.str.2 = private unnamed_addr constant [8 x i8] c"LITERAL\00", align 1
@.str.3 = private unnamed_addr constant [9 x i8] c"UNPARSED\00", align 1
@.str.4 = private unnamed_addr constant [10 x i8] c"REFERENCE\00", align 1
@.str.5 = private unnamed_addr constant [7 x i8] c"STRING\00", align 1
@.str.6 = private unnamed_addr constant [10 x i8] c"CHARCONST\00", align 1
@.str.7 = private unnamed_addr constant [7 x i8] c"NUMBER\00", align 1
@.str.8 = private unnamed_addr constant [6 x i8] c"FIELD\00", align 1
@.str.9 = private unnamed_addr constant [7 x i8] c"FVALUE\00", align 1
@.str.10 = private unnamed_addr constant [6 x i8] c"SLICE\00", align 1
@.str.11 = private unnamed_addr constant [9 x i8] c"FUNCTION\00", align 1
@.str.12 = private unnamed_addr constant [4 x i8] c"SET\00", align 1
@.str.13 = private unnamed_addr constant [5 x i8] c"PCRE\00", align 1
@.str.14 = private unnamed_addr constant [11 x i8] c"ARITHMETIC\00", align 1
@.str.15 = private unnamed_addr constant [10 x i8] c"NUM_TYPES\00", align 1
@.str.16 = private unnamed_addr constant [17 x i8] c"(unknown sttype)\00", align 1
@.str.49 = private unnamed_addr constant [3 x i8] c"{ \00", align 1
@.str.50 = private unnamed_addr constant [12 x i8] c"type = %s, \00", align 1
@.str.51 = private unnamed_addr constant [12 x i8] c"data = %s, \00", align 1
@.str.52 = private unnamed_addr constant [19 x i8] c"location = %ld:%zu\00", align 1
@.str.53 = private unnamed_addr constant [3 x i8] c" }\00", align 1

; Function Attrs: nounwind null_pointer_is_valid sspstrong uwtable
define ptr @sttype_name(i32 noundef %0) #2 {
  %2 = alloca ptr, align 8
  %3 = alloca i32, align 4
  store i32 %0, ptr %3, align 4
  %4 = load i32, ptr %3, align 4
  switch i32 %4, label %21 [
    i32 0, label %5
    i32 1, label %6
    i32 3, label %7
    i32 2, label %8
    i32 4, label %9
    i32 5, label %10
    i32 6, label %11
    i32 7, label %12
    i32 8, label %13
    i32 9, label %14
    i32 10, label %15
    i32 11, label %16
    i32 12, label %17
    i32 13, label %18
    i32 14, label %19
    i32 15, label %20
  ]

5:                                                ; preds = %1
  store ptr @.str, ptr %2, align 8
  br label %22

6:                                                ; preds = %1
  store ptr @.str.1, ptr %2, align 8
  br label %22

7:                                                ; preds = %1
  store ptr @.str.2, ptr %2, align 8
  br label %22

8:                                                ; preds = %1
  store ptr @.str.3, ptr %2, align 8
  br label %22

9:                                                ; preds = %1
  store ptr @.str.4, ptr %2, align 8
  br label %22

10:                                               ; preds = %1
  store ptr @.str.5, ptr %2, align 8
  br label %22

11:                                               ; preds = %1
  store ptr @.str.6, ptr %2, align 8
  br label %22

12:                                               ; preds = %1
  store ptr @.str.7, ptr %2, align 8
  br label %22

13:                                               ; preds = %1
  store ptr @.str.8, ptr %2, align 8
  br label %22

14:                                               ; preds = %1
  store ptr @.str.9, ptr %2, align 8
  br label %22

15:                                               ; preds = %1
  store ptr @.str.10, ptr %2, align 8
  br label %22

16:                                               ; preds = %1
  store ptr @.str.11, ptr %2, align 8
  br label %22

17:                                               ; preds = %1
  store ptr @.str.12, ptr %2, align 8
  br label %22

18:                                               ; preds = %1
  store ptr @.str.13, ptr %2, align 8
  br label %22

19:                                               ; preds = %1
  store ptr @.str.14, ptr %2, align 8
  br label %22

20:                                               ; preds = %1
  store ptr @.str.15, ptr %2, align 8
  br label %22

21:                                               ; preds = %1
  store ptr @.str.16, ptr %2, align 8
  br label %22

22:                                               ; preds = %21, %20, %19, %18, %17, %16, %15, %14, %13, %12, %11, %10, %9, %8, %7, %6, %5
  %23 = load ptr, ptr %2, align 8
  ret ptr %23
}

; Function Attrs: nounwind null_pointer_is_valid sspstrong uwtable
define ptr @stnode_type_name(ptr noundef %0) #2 {
  %2 = alloca ptr, align 8
  store ptr %0, ptr %2, align 8
  %3 = load ptr, ptr %2, align 8
  %4 = getelementptr inbounds nuw %struct.stnode, ptr %3, i32 0, i32 0
  %5 = load ptr, ptr %4, align 8
  %6 = getelementptr inbounds nuw %struct.sttype_t, ptr %5, i32 0, i32 0
  %7 = load i32, ptr %6, align 8
  %8 = call ptr @sttype_name(i32 noundef %7)
  ret ptr %8
}

; Function Attrs: null_pointer_is_valid sspstrong uwtable
define internal ptr @sprint_node(ptr noundef %0) #0 {
  %2 = alloca ptr, align 8
  %3 = alloca ptr, align 8
  store ptr %0, ptr %2, align 8
  call void @llvm.lifetime.start.p0(i64 8, ptr %3) #9
  %4 = call noalias ptr @wmem_strbuf_new(ptr noundef null, ptr noundef null)
  store ptr %4, ptr %3, align 8
  %5 = load ptr, ptr %3, align 8
  call void (ptr, ptr, ...) @wmem_strbuf_append_printf(ptr noundef %5, ptr noundef @.str.49)
  %6 = load ptr, ptr %3, align 8
  %7 = load ptr, ptr %2, align 8
  %8 = call ptr @stnode_type_name(ptr noundef %7)
  call void (ptr, ptr, ...) @wmem_strbuf_append_printf(ptr noundef %6, ptr noundef @.str.50, ptr noundef %8)
  %9 = load ptr, ptr %3, align 8
  %10 = load ptr, ptr %2, align 8
  %11 = call ptr @stnode_tostr(ptr noundef %10, i1 noundef zeroext false)
  call void (ptr, ptr, ...) @wmem_strbuf_append_printf(ptr noundef %9, ptr noundef @.str.51, ptr noundef %11)
  %12 = load ptr, ptr %3, align 8
  %13 = load ptr, ptr %2, align 8
  %14 = getelementptr inbounds nuw %struct.stnode, ptr %13, i32 0, i32 5
  %15 = getelementptr inbounds nuw %struct._dfilter_loc, ptr %14, i32 0, i32 0
  %16 = load i64, ptr %15, align 8
  %17 = load ptr, ptr %2, align 8
  %18 = getelementptr inbounds nuw %struct.stnode, ptr %17, i32 0, i32 5
  %19 = getelementptr inbounds nuw %struct._dfilter_loc, ptr %18, i32 0, i32 1
  %20 = load i64, ptr %19, align 8
  call void (ptr, ptr, ...) @wmem_strbuf_append_printf(ptr noundef %12, ptr noundef @.str.52, i64 noundef %16, i64 noundef %20)
  %21 = load ptr, ptr %3, align 8
  call void (ptr, ptr, ...) @wmem_strbuf_append_printf(ptr noundef %21, ptr noundef @.str.53)
  %22 = load ptr, ptr %3, align 8
  %23 = call ptr @wmem_strbuf_finalize(ptr noundef %22)
  call void @llvm.lifetime.end.p0(i64 8, ptr %3) #9
  ret ptr %23
}