; Function Attrs: null_pointer_is_valid sspstrong uwtable
define internal fastcc ptr @sprint_node(ptr noundef nonnull captures(none) %0) unnamed_addr #0 {
  %2 = tail call noalias ptr @wmem_strbuf_new(ptr noundef null, ptr noundef null)
  tail call void (ptr, ptr, ...) @wmem_strbuf_append_printf(ptr noundef %2, ptr noundef nonnull @.str.49)
  %3 = load ptr, ptr %0, align 8
  %4 = load i32, ptr %3, align 8
  %5 = icmp ult i32 %4, 16
  br i1 %5, label %switch.lookup, label %stnode_type_name.exit

switch.lookup:                                    ; preds = %1
  %6 = zext nneg i32 %4 to i64
  %switch.gep = getelementptr inbounds nuw [16 x ptr], ptr @switch.table.sprint_node, i64 0, i64 %6
  %switch.load = load ptr, ptr %switch.gep, align 8
  br label %stnode_type_name.exit

stnode_type_name.exit:                            ; preds = %1, %switch.lookup
  %.0.i.i = phi ptr [ %switch.load, %switch.lookup ], [ @.str.16, %1 ]
  tail call void (ptr, ptr, ...) @wmem_strbuf_append_printf(ptr noundef %2, ptr noundef nonnull @.str.50, ptr noundef nonnull %.0.i.i)
  %7 = tail call ptr @stnode_tostr(ptr noundef nonnull %0, i1 noundef zeroext false)
  tail call void (ptr, ptr, ...) @wmem_strbuf_append_printf(ptr noundef %2, ptr noundef nonnull @.str.51, ptr noundef %7)
  %8 = getelementptr inbounds nuw i8, ptr %0, i64 40
  %9 = load i64, ptr %8, align 8
  %10 = getelementptr inbounds nuw i8, ptr %0, i64 48
  %11 = load i64, ptr %10, align 8
  tail call void (ptr, ptr, ...) @wmem_strbuf_append_printf(ptr noundef %2, ptr noundef nonnull @.str.52, i64 noundef %9, i64 noundef %11)
  tail call void (ptr, ptr, ...) @wmem_strbuf_append_printf(ptr noundef %2, ptr noundef nonnull @.str.53)
  %12 = tail call ptr @wmem_strbuf_finalize(ptr noundef %2)
  ret ptr %12
}